; Function Attrs: mustprogress uwtable
define void @_ZN4LIEF5MachO7to_jsonB5cxx11ERKNS_6ObjectE(ptr dead_on_unwind noalias writable sret(%"class.std::__cxx11::basic_string") align 8 %0, ptr noundef nonnull align 8 dereferenceable(8) %1) local_unnamed_addr #2 personality ptr @__gxx_personality_v0 {
  %3 = alloca %"class.LIEF::MachO::JsonVisitor", align 8
  %4 = alloca %"class.nlohmann::json_abi_v3_11_2::basic_json", align 8
  call void @_ZN4LIEF11JsonVisitorC2Ev(ptr noundef nonnull align 8 dereferenceable(72) %3)
  store ptr getelementptr inbounds ({ [167 x ptr] }, ptr @_ZTVN4LIEF5MachO11JsonVisitorE, i64 0, i32 0, i64 2), ptr %3, align 8
  invoke void @_ZN4LIEF7Visitor8dispatchINS_6ObjectEEEvRKT_(ptr noundef nonnull align 8 dereferenceable(56) %3, ptr noundef nonnull align 8 dereferenceable(8) %1)
          to label %.noexc unwind label %20

.noexc:                                           ; preds = %2
  %5 = load ptr, ptr %3, align 8
  %6 = getelementptr inbounds i8, ptr %5, i64 16
  %7 = load ptr, ptr %6, align 8
  invoke void %7(ptr noundef nonnull align 8 dereferenceable(56) %3)
          to label %_ZN4LIEF7VisitorclIRKNS_6ObjectEJEEEvOT_DpOT0_.exit unwind label %20

_ZN4LIEF7VisitorclIRKNS_6ObjectEJEEEvOT_DpOT0_.exit: ; preds = %.noexc
  %8 = getelementptr inbounds i8, ptr %3, i64 56
  invoke void @_ZN8nlohmann16json_abi_v3_11_210basic_jsonISt3mapSt6vectorNSt7__cxx1112basic_stringIcSt11char_traitsIcESaIcEEEblmdSaNS0_14adl_serializerES3_IhSaIhEEEC2ERKSD_(ptr noundef nonnull align 8 dereferenceable(16) %4, ptr noundef nonnull align 8 dereferenceable(16) %8)
          to label %_ZNK4LIEF11JsonVisitor3getB5cxx11Ev.exit unwind label %20

_ZNK4LIEF11JsonVisitor3getB5cxx11Ev.exit:         ; preds = %_ZN4LIEF7VisitorclIRKNS_6ObjectEJEEEvOT_DpOT0_.exit
  call void @_ZNSt7__cxx1112basic_stringIcSt11char_traitsIcESaIcEEC1Ev(ptr noundef nonnull align 8 dereferenceable(32) %0) #15
  invoke void @_ZN8nlohmann16json_abi_v3_11_26detail9from_jsonINS0_10basic_jsonISt3mapSt6vectorNSt7__cxx1112basic_stringIcSt11char_traitsIcESaIcEEEblmdSaNS0_14adl_serializerES5_IhSaIhEEEEEEvRKT_RNSG_8string_tE(ptr noundef nonnull align 8 dereferenceable(16) %4, ptr noundef nonnull align 8 dereferenceable(32) %0)
          to label %_ZNK8nlohmann16json_abi_v3_11_210basic_jsonISt3mapSt6vectorNSt7__cxx1112basic_stringIcSt11char_traitsIcESaIcEEEblmdSaNS0_14adl_serializerES3_IhSaIhEEEcvT_IS9_TnNSt9enable_ifIXsr6detail11conjunctionINS0_6detail8negationISt10is_pointerISE_EEENSI_ISt7is_sameISE_DnEEENSI_ISM_ISE_NSH_8json_refISD_EEEEENSI_ISM_ISE_cEEENSI_INSH_13is_basic_jsonISE_EEEENSI_ISM_ISE_St16initializer_listIcEEEENSI_ISM_ISE_St17basic_string_viewIcS7_EEEENSI_ISM_ISE_St3anyEEENSH_16is_detected_lazyINSH_21get_template_functionEJRKSD_SE_EEEEE5valueEiE4typeELi0EEEv.exit unwind label %.body

.body:                                            ; preds = %_ZNK4LIEF11JsonVisitor3getB5cxx11Ev.exit
  %9 = landingpad { ptr, i32 }
          cleanup
  call void @_ZNSt7__cxx1112basic_stringIcSt11char_traitsIcESaIcEED1Ev(ptr noundef nonnull align 8 dereferenceable(32) %0) #15
  call void @_ZN8nlohmann16json_abi_v3_11_210basic_jsonISt3mapSt6vectorNSt7__cxx1112basic_stringIcSt11char_traitsIcESaIcEEEblmdSaNS0_14adl_serializerES3_IhSaIhEEED2Ev(ptr noundef nonnull align 8 dereferenceable(16) %4) #15
  br label %22

_ZNK8nlohmann16json_abi_v3_11_210basic_jsonISt3mapSt6vectorNSt7__cxx1112basic_stringIcSt11char_traitsIcESaIcEEEblmdSaNS0_14adl_serializerES3_IhSaIhEEEcvT_IS9_TnNSt9enable_ifIXsr6detail11conjunctionINS0_6detail8negationISt10is_pointerISE_EEENSI_ISt7is_sameISE_DnEEENSI_ISM_ISE_NSH_8json_refISD_EEEEENSI_ISM_ISE_cEEENSI_INSH_13is_basic_jsonISE_EEEENSI_ISM_ISE_St16initializer_listIcEEEENSI_ISM_ISE_St17basic_string_viewIcS7_EEEENSI_ISM_ISE_St3anyEEENSH_16is_detected_lazyINSH_21get_template_functionEJRKSD_SE_EEEEE5valueEiE4typeELi0EEEv.exit: ; preds = %_ZNK4LIEF11JsonVisitor3getB5cxx11Ev.exit
  %10 = getelementptr inbounds i8, ptr %4, i64 8
  %11 = load i8, ptr %4, align 8
  invoke void @_ZN8nlohmann16json_abi_v3_11_210basic_jsonISt3mapSt6vectorNSt7__cxx1112basic_stringIcSt11char_traitsIcESaIcEEEblmdSaNS0_14adl_serializerES3_IhSaIhEEE10json_value7destroyENS0_6detail7value_tE(ptr noundef nonnull align 8 dereferenceable(8) %10, i8 noundef zeroext %11) #16
          to label %_ZN8nlohmann16json_abi_v3_11_210basic_jsonISt3mapSt6vectorNSt7__cxx1112basic_stringIcSt11char_traitsIcESaIcEEEblmdSaNS0_14adl_serializerES3_IhSaIhEEED2Ev.exit unwind label %12

12:                                               ; preds = %_ZNK8nlohmann16json_abi_v3_11_210basic_jsonISt3mapSt6vectorNSt7__cxx1112basic_stringIcSt11char_traitsIcESaIcEEEblmdSaNS0_14adl_serializerES3_IhSaIhEEEcvT_IS9_TnNSt9enable_ifIXsr6detail11conjunctionINS0_6detail8negationISt10is_pointerISE_EEENSI_ISt7is_sameISE_DnEEENSI_ISM_ISE_NSH_8json_refISD_EEEEENSI_ISM_ISE_cEEENSI_INSH_13is_basic_jsonISE_EEEENSI_ISM_ISE_St16initializer_listIcEEEENSI_ISM_ISE_St17basic_string_viewIcS7_EEEENSI_ISM_ISE_St3anyEEENSH_16is_detected_lazyINSH_21get_template_functionEJRKSD_SE_EEEEE5valueEiE4typeELi0EEEv.exit
  %13 = landingpad { ptr, i32 }
          catch ptr null
  %14 = extractvalue { ptr, i32 } %13, 0
  call void @__clang_call_terminate(ptr %14) #17
  unreachable

_ZN8nlohmann16json_abi_v3_11_210basic_jsonISt3mapSt6vectorNSt7__cxx1112basic_stringIcSt11char_traitsIcESaIcEEEblmdSaNS0_14adl_serializerES3_IhSaIhEEED2Ev.exit: ; preds = %_ZNK8nlohmann16json_abi_v3_11_210basic_jsonISt3mapSt6vectorNSt7__cxx1112basic_stringIcSt11char_traitsIcESaIcEEEblmdSaNS0_14adl_serializerES3_IhSaIhEEEcvT_IS9_TnNSt9enable_ifIXsr6detail11conjunctionINS0_6detail8negationISt10is_pointerISE_EEENSI_ISt7is_sameISE_DnEEENSI_ISM_ISE_NSH_8json_refISD_EEEEENSI_ISM_ISE_cEEENSI_INSH_13is_basic_jsonISE_EEEENSI_ISM_ISE_St16initializer_listIcEEEENSI_ISM_ISE_St17basic_string_viewIcS7_EEEENSI_ISM_ISE_St3anyEEENSH_16is_detected_lazyINSH_21get_template_functionEJRKSD_SE_EEEEE5valueEiE4typeELi0EEEv.exit
  store ptr getelementptr inbounds ({ [167 x ptr] }, ptr @_ZTVN4LIEF11JsonVisitorE, i64 0, i32 0, i64 2), ptr %3, align 8
  %15 = getelementptr inbounds i8, ptr %3, i64 64
  %16 = load i8, ptr %8, align 8
  invoke void @_ZN8nlohmann16json_abi_v3_11_210basic_jsonISt3mapSt6vectorNSt7__cxx1112basic_stringIcSt11char_traitsIcESaIcEEEblmdSaNS0_14adl_serializerES3_IhSaIhEEE10json_value7destroyENS0_6detail7value_tE(ptr noundef nonnull align 8 dereferenceable(8) %15, i8 noundef zeroext %16) #16
          to label %_ZN4LIEF5MachO11JsonVisitorD2Ev.exit unwind label %17

17:                                               ; preds = %_ZN8nlohmann16json_abi_v3_11_210basic_jsonISt3mapSt6vectorNSt7__cxx1112basic_stringIcSt11char_traitsIcESaIcEEEblmdSaNS0_14adl_serializerES3_IhSaIhEEED2Ev.exit
  %18 = landingpad { ptr, i32 }
          catch ptr null
  %19 = extractvalue { ptr, i32 } %18, 0
  call void @__clang_call_terminate(ptr %19) #17
  unreachable

_ZN4LIEF5MachO11JsonVisitorD2Ev.exit:             ; preds = %_ZN8nlohmann16json_abi_v3_11_210basic_jsonISt3mapSt6vectorNSt7__cxx1112basic_stringIcSt11char_traitsIcESaIcEEEblmdSaNS0_14adl_serializerES3_IhSaIhEEED2Ev.exit
  call void @_ZN4LIEF7VisitorD2Ev(ptr noundef nonnull align 8 dereferenceable(56) %3) #15
  ret void

20:                                               ; preds = %_ZN4LIEF7VisitorclIRKNS_6ObjectEJEEEvOT_DpOT0_.exit, %.noexc, %2
  %21 = landingpad { ptr, i32 }
          cleanup
  br label %22

22:                                               ; preds = %.body, %20
  %.pn = phi { ptr, i32 } [ %9, %.body ], [ %21, %20 ]
  call void @_ZN4LIEF5MachO11JsonVisitorD2Ev(ptr noundef nonnull align 8 dereferenceable(72) %3) #15
  resume { ptr, i32 } %.pn
}